target datalayout = "e-m:e-p270:32:32-p271:32:32-p272:64:64-i64:64-i128:128-f80:128-n8:16:32:64-S128"
target triple = "x86_64-pc-linux-gnu"

%class.QString = type { %struct.QArrayDataPointer }
%struct.QArrayDataPointer = type { ptr, ptr, i64 }
%class.FunnelAction = type { %class.QAction, %class.QString, %class.QString, ptr, ptr, i32, ptr, ptr, %class.QSet }
%class.QAction = type { %class.QObject }
%class.QObject = type { ptr, %class.QScopedPointer }
%class.QScopedPointer = type { ptr }
%class.QSet = type { %class.QHash }
%class.QHash = type { ptr }

@_ZTV12FunnelAction = external unnamed_addr constant { [15 x ptr] }, align 8

; Function Attrs: mustprogress nounwind uwtable
define linkonce_odr void @_ZN5QHashI7QString15QHashDummyValueEC2Ev(ptr noundef nonnull align 8 dereferenceable(8) %0) unnamed_addr #2 comdat align 2 {
  %2 = alloca ptr, align 8
  store ptr %0, ptr %2, align 8
  %3 = load ptr, ptr %2, align 8
  %4 = getelementptr inbounds %class.QHash, ptr %3, i32 0, i32 0
  store ptr null, ptr %4, align 8
  ret void
}

; Function Attrs: mustprogress nounwind uwtable
define linkonce_odr void @_ZN17QArrayDataPointerIDsEC2Ev(ptr noundef nonnull align 8 dereferenceable(24) %0) unnamed_addr #2 comdat align 2 {
  %2 = alloca ptr, align 8
  store ptr %0, ptr %2, align 8
  %3 = load ptr, ptr %2, align 8
  %4 = getelementptr inbounds %struct.QArrayDataPointer, ptr %3, i32 0, i32 0
  store ptr null, ptr %4, align 8
  %5 = getelementptr inbounds %struct.QArrayDataPointer, ptr %3, i32 0, i32 1
  store ptr null, ptr %5, align 8
  %6 = getelementptr inbounds %struct.QArrayDataPointer, ptr %3, i32 0, i32 2
  store i64 0, ptr %6, align 8
  ret void
}

; Function Attrs: mustprogress nounwind uwtable
define linkonce_odr void @_ZN4QSetI7QStringEC2Ev(ptr noundef nonnull align 8 dereferenceable(8) %0) unnamed_addr #2 comdat align 2 {
  %2 = alloca ptr, align 8
  store ptr %0, ptr %2, align 8
  %3 = load ptr, ptr %2, align 8
  %4 = getelementptr inbounds %class.QSet, ptr %3, i32 0, i32 0
  call void @_ZN5QHashI7QString15QHashDummyValueEC2Ev(ptr noundef nonnull align 8 dereferenceable(8) %4) #8
  ret void
}

; Function Attrs: mustprogress nounwind uwtable
define linkonce_odr void @_ZN7QStringC2Ev(ptr noundef nonnull align 8 dereferenceable(24) %0) unnamed_addr #2 comdat align 2 {
  %2 = alloca ptr, align 8
  store ptr %0, ptr %2, align 8
  %3 = load ptr, ptr %2, align 8
  %4 = getelementptr inbounds %class.QString, ptr %3, i32 0, i32 0
  call void @_ZN17QArrayDataPointerIDsEC2Ev(ptr noundef nonnull align 8 dereferenceable(24) %4) #8
  ret void
}

; Function Attrs: mustprogress uwtable
define void @_ZN12FunnelActionC2EP7QObject(ptr noundef nonnull align 8 dereferenceable(112) %0, ptr noundef %1) unnamed_addr #0 align 2 {
  %3 = alloca ptr, align 8
  %4 = alloca ptr, align 8
  store ptr %0, ptr %3, align 8
  store ptr %1, ptr %4, align 8
  %5 = load ptr, ptr %3, align 8
  %6 = load ptr, ptr %4, align 8
  call void @_ZN7QActionC2EP7QObject(ptr noundef nonnull align 8 dereferenceable(16) %5, ptr noundef %6)
  store ptr getelementptr inbounds ({ [15 x ptr] }, ptr @_ZTV12FunnelAction, i32 0, i32 0, i32 2), ptr %5, align 8
  %7 = getelementptr inbounds %class.FunnelAction, ptr %5, i32 0, i32 1
  call void @_ZN7QStringC2Ev(ptr noundef nonnull align 8 dereferenceable(24) %7) #8
  %8 = getelementptr inbounds %class.FunnelAction, ptr %5, i32 0, i32 2
  call void @_ZN7QStringC2Ev(ptr noundef nonnull align 8 dereferenceable(24) %8) #8
  %9 = getelementptr inbounds %class.FunnelAction, ptr %5, i32 0, i32 3
  store ptr null, ptr %9, align 8
  %10 = getelementptr inbounds %class.FunnelAction, ptr %5, i32 0, i32 4
  store ptr null, ptr %10, align 8
  %11 = getelementptr inbounds %class.FunnelAction, ptr %5, i32 0, i32 5
  store i32 0, ptr %11, align 8
  %12 = getelementptr inbounds %class.FunnelAction, ptr %5, i32 0, i32 6
  store ptr null, ptr %12, align 8
  %13 = getelementptr inbounds %class.FunnelAction, ptr %5, i32 0, i32 7
  store ptr null, ptr %13, align 8
  %14 = getelementptr inbounds %class.FunnelAction, ptr %5, i32 0, i32 8
  call void @_ZN4QSetI7QStringEC2Ev(ptr noundef nonnull align 8 dereferenceable(8) %14) #8
  ret void
}